target datalayout = "e-m:e-p270:32:32-p271:32:32-p272:64:64-i64:64-i128:128-f80:128-n8:16:32:64-S128"
target triple = "x86_64-pc-linux-gnu"

%"struct.boost::urls::url_base::op_t" = type { ptr, ptr, ptr, ptr }
%"class.boost::urls::url_view_base" = type { [8 x i8], %"struct.boost::urls::detail::url_impl", ptr }
%"struct.boost::urls::detail::url_impl" = type <{ ptr, [8 x i64], [7 x i64], i64, i64, [16 x i8], i16, [2 x i8], i32, i16, i8, [5 x i8] }>

@_ZN5boost4urls8url_base4op_tD1Ev = unnamed_addr alias void (ptr), ptr @_ZN5boost4urls8url_base4op_tD2Ev
@_ZN5boost4urls8url_base4op_tC1ERS1_PNS_4core17basic_string_viewIcEES7_ = unnamed_addr alias void (ptr, ptr, ptr, ptr), ptr @_ZN5boost4urls8url_base4op_tC2ERS1_PNS_4core17basic_string_viewIcEES7_

; Function Attrs: mustprogress uwtable
define noundef ptr @_ZN5boost4urls8url_base11resize_implEimRNS1_4op_tE(ptr noundef nonnull align 8 dereferenceable(216) %0, i32 noundef %1, i64 noundef %2, ptr noundef nonnull align 8 dereferenceable(32) %3) #5 align 2 {
  %5 = alloca ptr, align 8
  %6 = alloca i32, align 4
  %7 = alloca i64, align 8
  %8 = alloca ptr, align 8
  store ptr %0, ptr %5, align 8, !tbaa !7
  store i32 %1, ptr %6, align 4, !tbaa !3
  store i64 %2, ptr %7, align 8, !tbaa !21
  store ptr %3, ptr %8, align 8, !tbaa !7
  %9 = load ptr, ptr %5, align 8
  %10 = load i32, ptr %6, align 4, !tbaa !3
  %11 = load i32, ptr %6, align 4, !tbaa !3
  %12 = add nsw i32 %11, 1
  %13 = load i64, ptr %7, align 8, !tbaa !21
  %14 = load ptr, ptr %8, align 8, !tbaa !7
  %15 = call noundef ptr @_ZN5boost4urls8url_base11resize_implEiimRNS1_4op_tE(ptr noundef nonnull align 8 dereferenceable(216) %9, i32 noundef %10, i32 noundef %12, i64 noundef %13, ptr noundef nonnull align 8 dereferenceable(32) %14)
  ret ptr %15
}

; Function Attrs: mustprogress nounwind uwtable
define noundef nonnull align 8 dereferenceable(216) ptr @_ZN5boost4urls8url_base12remove_queryEv(ptr noundef nonnull align 8 dereferenceable(216) %0) #2 align 2 personality ptr @__gxx_personality_v0 {
  %2 = alloca ptr, align 8
  %3 = alloca %"struct.boost::urls::url_base::op_t", align 8
  store ptr %0, ptr %2, align 8, !tbaa !7
  %4 = load ptr, ptr %2, align 8
  call void @llvm.lifetime.start.p0(i64 32, ptr %3) #9
  call void @_ZN5boost4urls8url_base4op_tC1ERS1_PNS_4core17basic_string_viewIcEES7_(ptr noundef nonnull align 8 dereferenceable(32) %3, ptr noundef nonnull align 8 dereferenceable(216) %4, ptr noundef null, ptr noundef null) #9
  %5 = invoke noundef ptr @_ZN5boost4urls8url_base11resize_implEimRNS1_4op_tE(ptr noundef nonnull align 8 dereferenceable(216) %4, i32 noundef 5, i64 noundef 0, ptr noundef nonnull align 8 dereferenceable(32) %3)
          to label %6 unwind label %14

6:                                                ; preds = %1
  %7 = getelementptr inbounds i8, ptr %4, i64 8
  %8 = getelementptr inbounds nuw %"class.boost::urls::url_view_base", ptr %7, i32 0, i32 1
  %9 = getelementptr inbounds nuw %"struct.boost::urls::detail::url_impl", ptr %8, i32 0, i32 4
  store i64 0, ptr %9, align 8, !tbaa !99
  %10 = getelementptr inbounds i8, ptr %4, i64 8
  %11 = getelementptr inbounds nuw %"class.boost::urls::url_view_base", ptr %10, i32 0, i32 1
  %12 = getelementptr inbounds nuw %"struct.boost::urls::detail::url_impl", ptr %11, i32 0, i32 2
  %13 = getelementptr inbounds [7 x i64], ptr %12, i64 0, i64 5
  store i64 0, ptr %13, align 8, !tbaa !21
  call void @_ZN5boost4urls8url_base4op_tD1Ev(ptr noundef nonnull align 8 dereferenceable(32) %3) #9
  call void @llvm.lifetime.end.p0(i64 32, ptr %3) #9
  ret ptr %4

14:                                               ; preds = %1
  %15 = landingpad { ptr, i32 }
          catch ptr null
  %16 = extractvalue { ptr, i32 } %15, 0
  call void @__clang_call_terminate(ptr %16) #21
  unreachable
}