; Function Attrs: mustprogress nounwind uwtable
define noundef nonnull align 8 dereferenceable(216) ptr @_ZN5boost4urls8url_base12remove_queryEv(ptr noundef nonnull returned align 8 dereferenceable(216) %0) local_unnamed_addr #6 align 2 personality ptr @__gxx_personality_v0 {
  %2 = alloca %"struct.boost::urls::url_base::op_t", align 8
  call void @llvm.lifetime.start.p0(i64 32, ptr nonnull %2) #30
  call void @_ZN5boost4urls8url_base4op_tC1ERS1_PNS_4core17basic_string_viewIcEES7_(ptr noundef nonnull align 8 dereferenceable(32) %2, ptr noundef nonnull align 8 dereferenceable(216) %0, ptr noundef null, ptr noundef null) #30
  %3 = invoke noundef ptr @_ZN5boost4urls8url_base11resize_implEiimRNS1_4op_tE(ptr noundef nonnull align 8 dereferenceable(216) %0, i32 noundef 5, i32 noundef 6, i64 noundef 0, ptr noundef nonnull align 8 dereferenceable(32) %2)
          to label %_ZN5boost4urls8url_base11resize_implEimRNS1_4op_tE.exit unwind label %6

_ZN5boost4urls8url_base11resize_implEimRNS1_4op_tE.exit: ; preds = %1
  %4 = getelementptr inbounds i8, ptr %0, i64 152
  store i64 0, ptr %4, align 8, !tbaa !153
  %5 = getelementptr inbounds i8, ptr %0, i64 128
  store i64 0, ptr %5, align 8, !tbaa !14
  call void @_ZN5boost4urls8url_base4op_tD1Ev(ptr noundef nonnull align 8 dereferenceable(32) %2) #30
  call void @llvm.lifetime.end.p0(i64 32, ptr nonnull %2) #30
  ret ptr %0

6:                                                ; preds = %1
  %7 = landingpad { ptr, i32 }
          catch ptr null
  %8 = extractvalue { ptr, i32 } %7, 0
  call void @__clang_call_terminate(ptr %8) #31
  unreachable
}